; Function Attrs: mustprogress nounwind uwtable
define internal void @_ZN3tbb6detail2d227forward_block_handling_taskIN32pxrInternal_v0_24__pxrReserved__22UsdPrimSubtreeIteratorEZZNS3_12_GLOBAL__N_137_TargetingPropertyDependencyCollector4_RunERKNS3_8TfRefPtrINS3_8UsdStageEEEENKUlvE_clEvEUlRKNS3_7UsdPrimEE_SD_ED2Ev(ptr noundef nonnull align 64 dereferenceable(624) initializes((0, 8)) %0) unnamed_addr #3 align 2 personality ptr @__gxx_personality_v0 {
  store ptr getelementptr inbounds nuw inrange(-16, 32) (i8, ptr @_ZTVN3tbb6detail2d227forward_block_handling_taskIN32pxrInternal_v0_24__pxrReserved__22UsdPrimSubtreeIteratorEZZNS3_12_GLOBAL__N_137_TargetingPropertyDependencyCollector4_RunERKNS3_8TfRefPtrINS3_8UsdStageEEEENKUlvE_clEvEUlRKNS3_7UsdPrimEE_SD_EE, i64 16), ptr %0, align 64
  %2 = getelementptr inbounds nuw i8, ptr %0, i64 576
  %3 = load i64, ptr %2, align 64
  %.not = icmp eq i64 %3, 0
  br i1 %.not, label %._crit_edge, label %.lr.ph

.lr.ph:                                           ; preds = %1
  %4 = getelementptr inbounds nuw i8, ptr %0, i64 64
  br label %5

5:                                                ; preds = %.lr.ph, %5
  %.03 = phi i64 [ 0, %.lr.ph ], [ %9, %5 ]
  %6 = getelementptr inbounds %"struct.tbb::detail::d2::for_each_iteration_task", ptr %4, i64 %.03
  %7 = load ptr, ptr %6, align 64
  %8 = load ptr, ptr %7, align 8
  tail call void %8(ptr noundef nonnull align 64 dereferenceable(128) %6) #13
  %9 = add nuw i64 %.03, 1
  %10 = load i64, ptr %2, align 64
  %11 = icmp ult i64 %9, %10
  br i1 %11, label %5, label %._crit_edge, !llvm.loop !127

._crit_edge:                                      ; preds = %5, %1
  ret void
}